target datalayout = "e-m:e-p270:32:32-p271:32:32-p272:64:64-i64:64-i128:128-f80:128-n8:16:32:64-S128"
target triple = "x86_64-pc-linux-gnu"

%struct._generic_SUNLinearSolver = type { ptr, ptr, ptr }
%struct._SUNLinearSolverContent_SPGMR = type { i32, i32, i32, i32, i32, i32, double, i32, ptr, ptr, ptr, ptr, ptr, ptr, ptr, ptr, ptr, ptr, ptr, ptr, ptr, ptr, ptr }

; Function Attrs: nounwind uwtable
define i32 @SUNLinSolFree_SPGMR(ptr noundef %0) #0 {
  %2 = alloca ptr, align 8
  %3 = alloca i32, align 4
  store ptr %0, ptr %2, align 8, !tbaa !12
  call void @llvm.lifetime.start.p0(i64 4, ptr %3) #6
  %4 = load ptr, ptr %2, align 8, !tbaa !12
  %5 = getelementptr inbounds nuw %struct._generic_SUNLinearSolver, ptr %4, i32 0, i32 0
  %6 = load ptr, ptr %5, align 8, !tbaa !35
  %7 = icmp ne ptr %6, null
  br i1 %7, label %8, label %198

8:                                                ; preds = %1
  %9 = load ptr, ptr %2, align 8, !tbaa !12
  %10 = getelementptr inbounds nuw %struct._generic_SUNLinearSolver, ptr %9, i32 0, i32 0
  %11 = load ptr, ptr %10, align 8, !tbaa !35
  %12 = getelementptr inbounds nuw %struct._SUNLinearSolverContent_SPGMR, ptr %11, i32 0, i32 18
  %13 = load ptr, ptr %12, align 8, !tbaa !49
  %14 = icmp ne ptr %13, null
  br i1 %14, label %15, label %25

15:                                               ; preds = %8
  %16 = load ptr, ptr %2, align 8, !tbaa !12
  %17 = getelementptr inbounds nuw %struct._generic_SUNLinearSolver, ptr %16, i32 0, i32 0
  %18 = load ptr, ptr %17, align 8, !tbaa !35
  %19 = getelementptr inbounds nuw %struct._SUNLinearSolverContent_SPGMR, ptr %18, i32 0, i32 18
  %20 = load ptr, ptr %19, align 8, !tbaa !49
  call void @N_VDestroy(ptr noundef %20)
  %21 = load ptr, ptr %2, align 8, !tbaa !12
  %22 = getelementptr inbounds nuw %struct._generic_SUNLinearSolver, ptr %21, i32 0, i32 0
  %23 = load ptr, ptr %22, align 8, !tbaa !35
  %24 = getelementptr inbounds nuw %struct._SUNLinearSolverContent_SPGMR, ptr %23, i32 0, i32 18
  store ptr null, ptr %24, align 8, !tbaa !49
  br label %25

25:                                               ; preds = %15, %8
  %26 = load ptr, ptr %2, align 8, !tbaa !12
  %27 = getelementptr inbounds nuw %struct._generic_SUNLinearSolver, ptr %26, i32 0, i32 0
  %28 = load ptr, ptr %27, align 8, !tbaa !35
  %29 = getelementptr inbounds nuw %struct._SUNLinearSolverContent_SPGMR, ptr %28, i32 0, i32 20
  %30 = load ptr, ptr %29, align 8, !tbaa !50
  %31 = icmp ne ptr %30, null
  br i1 %31, label %32, label %42

32:                                               ; preds = %25
  %33 = load ptr, ptr %2, align 8, !tbaa !12
  %34 = getelementptr inbounds nuw %struct._generic_SUNLinearSolver, ptr %33, i32 0, i32 0
  %35 = load ptr, ptr %34, align 8, !tbaa !35
  %36 = getelementptr inbounds nuw %struct._SUNLinearSolverContent_SPGMR, ptr %35, i32 0, i32 20
  %37 = load ptr, ptr %36, align 8, !tbaa !50
  call void @N_VDestroy(ptr noundef %37)
  %38 = load ptr, ptr %2, align 8, !tbaa !12
  %39 = getelementptr inbounds nuw %struct._generic_SUNLinearSolver, ptr %38, i32 0, i32 0
  %40 = load ptr, ptr %39, align 8, !tbaa !35
  %41 = getelementptr inbounds nuw %struct._SUNLinearSolverContent_SPGMR, ptr %40, i32 0, i32 20
  store ptr null, ptr %41, align 8, !tbaa !50
  br label %42

42:                                               ; preds = %32, %25
  %43 = load ptr, ptr %2, align 8, !tbaa !12
  %44 = getelementptr inbounds nuw %struct._generic_SUNLinearSolver, ptr %43, i32 0, i32 0
  %45 = load ptr, ptr %44, align 8, !tbaa !35
  %46 = getelementptr inbounds nuw %struct._SUNLinearSolverContent_SPGMR, ptr %45, i32 0, i32 15
  %47 = load ptr, ptr %46, align 8, !tbaa !58
  %48 = icmp ne ptr %47, null
  br i1 %48, label %49, label %65

49:                                               ; preds = %42
  %50 = load ptr, ptr %2, align 8, !tbaa !12
  %51 = getelementptr inbounds nuw %struct._generic_SUNLinearSolver, ptr %50, i32 0, i32 0
  %52 = load ptr, ptr %51, align 8, !tbaa !35
  %53 = getelementptr inbounds nuw %struct._SUNLinearSolverContent_SPGMR, ptr %52, i32 0, i32 15
  %54 = load ptr, ptr %53, align 8, !tbaa !58
  %55 = load ptr, ptr %2, align 8, !tbaa !12
  %56 = getelementptr inbounds nuw %struct._generic_SUNLinearSolver, ptr %55, i32 0, i32 0
  %57 = load ptr, ptr %56, align 8, !tbaa !35
  %58 = getelementptr inbounds nuw %struct._SUNLinearSolverContent_SPGMR, ptr %57, i32 0, i32 0
  %59 = load i32, ptr %58, align 8, !tbaa !42
  %60 = add nsw i32 %59, 1
  call void @N_VDestroyVectorArray(ptr noundef %54, i32 noundef %60)
  %61 = load ptr, ptr %2, align 8, !tbaa !12
  %62 = getelementptr inbounds nuw %struct._generic_SUNLinearSolver, ptr %61, i32 0, i32 0
  %63 = load ptr, ptr %62, align 8, !tbaa !35
  %64 = getelementptr inbounds nuw %struct._SUNLinearSolverContent_SPGMR, ptr %63, i32 0, i32 15
  store ptr null, ptr %64, align 8, !tbaa !58
  br label %65

65:                                               ; preds = %49, %42
  %66 = load ptr, ptr %2, align 8, !tbaa !12
  %67 = getelementptr inbounds nuw %struct._generic_SUNLinearSolver, ptr %66, i32 0, i32 0
  %68 = load ptr, ptr %67, align 8, !tbaa !35
  %69 = getelementptr inbounds nuw %struct._SUNLinearSolverContent_SPGMR, ptr %68, i32 0, i32 16
  %70 = load ptr, ptr %69, align 8, !tbaa !59
  %71 = icmp ne ptr %70, null
  br i1 %71, label %72, label %124

72:                                               ; preds = %65
  store i32 0, ptr %3, align 4, !tbaa !8
  br label %73

73:                                               ; preds = %111, %72
  %74 = load i32, ptr %3, align 4, !tbaa !8
  %75 = load ptr, ptr %2, align 8, !tbaa !12
  %76 = getelementptr inbounds nuw %struct._generic_SUNLinearSolver, ptr %75, i32 0, i32 0
  %77 = load ptr, ptr %76, align 8, !tbaa !35
  %78 = getelementptr inbounds nuw %struct._SUNLinearSolverContent_SPGMR, ptr %77, i32 0, i32 0
  %79 = load i32, ptr %78, align 8, !tbaa !42
  %80 = icmp sle i32 %74, %79
  br i1 %80, label %81, label %114

81:                                               ; preds = %73
  %82 = load ptr, ptr %2, align 8, !tbaa !12
  %83 = getelementptr inbounds nuw %struct._generic_SUNLinearSolver, ptr %82, i32 0, i32 0
  %84 = load ptr, ptr %83, align 8, !tbaa !35
  %85 = getelementptr inbounds nuw %struct._SUNLinearSolverContent_SPGMR, ptr %84, i32 0, i32 16
  %86 = load ptr, ptr %85, align 8, !tbaa !59
  %87 = load i32, ptr %3, align 4, !tbaa !8
  %88 = sext i32 %87 to i64
  %89 = getelementptr inbounds ptr, ptr %86, i64 %88
  %90 = load ptr, ptr %89, align 8, !tbaa !66
  %91 = icmp ne ptr %90, null
  br i1 %91, label %92, label %110

92:                                               ; preds = %81
  %93 = load ptr, ptr %2, align 8, !tbaa !12
  %94 = getelementptr inbounds nuw %struct._generic_SUNLinearSolver, ptr %93, i32 0, i32 0
  %95 = load ptr, ptr %94, align 8, !tbaa !35
  %96 = getelementptr inbounds nuw %struct._SUNLinearSolverContent_SPGMR, ptr %95, i32 0, i32 16
  %97 = load ptr, ptr %96, align 8, !tbaa !59
  %98 = load i32, ptr %3, align 4, !tbaa !8
  %99 = sext i32 %98 to i64
  %100 = getelementptr inbounds ptr, ptr %97, i64 %99
  %101 = load ptr, ptr %100, align 8, !tbaa !66
  call void @free(ptr noundef %101) #6
  %102 = load ptr, ptr %2, align 8, !tbaa !12
  %103 = getelementptr inbounds nuw %struct._generic_SUNLinearSolver, ptr %102, i32 0, i32 0
  %104 = load ptr, ptr %103, align 8, !tbaa !35
  %105 = getelementptr inbounds nuw %struct._SUNLinearSolverContent_SPGMR, ptr %104, i32 0, i32 16
  %106 = load ptr, ptr %105, align 8, !tbaa !59
  %107 = load i32, ptr %3, align 4, !tbaa !8
  %108 = sext i32 %107 to i64
  %109 = getelementptr inbounds ptr, ptr %106, i64 %108
  store ptr null, ptr %109, align 8, !tbaa !66
  br label %110

110:                                              ; preds = %92, %81
  br label %111

111:                                              ; preds = %110
  %112 = load i32, ptr %3, align 4, !tbaa !8
  %113 = add nsw i32 %112, 1
  store i32 %113, ptr %3, align 4, !tbaa !8
  br label %73

114:                                              ; preds = %73
  %115 = load ptr, ptr %2, align 8, !tbaa !12
  %116 = getelementptr inbounds nuw %struct._generic_SUNLinearSolver, ptr %115, i32 0, i32 0
  %117 = load ptr, ptr %116, align 8, !tbaa !35
  %118 = getelementptr inbounds nuw %struct._SUNLinearSolverContent_SPGMR, ptr %117, i32 0, i32 16
  %119 = load ptr, ptr %118, align 8, !tbaa !59
  call void @free(ptr noundef %119) #6
  %120 = load ptr, ptr %2, align 8, !tbaa !12
  %121 = getelementptr inbounds nuw %struct._generic_SUNLinearSolver, ptr %120, i32 0, i32 0
  %122 = load ptr, ptr %121, align 8, !tbaa !35
  %123 = getelementptr inbounds nuw %struct._SUNLinearSolverContent_SPGMR, ptr %122, i32 0, i32 16
  store ptr null, ptr %123, align 8, !tbaa !59
  br label %124

124:                                              ; preds = %114, %65
  %125 = load ptr, ptr %2, align 8, !tbaa !12
  %126 = getelementptr inbounds nuw %struct._generic_SUNLinearSolver, ptr %125, i32 0, i32 0
  %127 = load ptr, ptr %126, align 8, !tbaa !35
  %128 = getelementptr inbounds nuw %struct._SUNLinearSolverContent_SPGMR, ptr %127, i32 0, i32 17
  %129 = load ptr, ptr %128, align 8, !tbaa !60
  %130 = icmp ne ptr %129, null
  br i1 %130, label %131, label %141

131:                                              ; preds = %124
  %132 = load ptr, ptr %2, align 8, !tbaa !12
  %133 = getelementptr inbounds nuw %struct._generic_SUNLinearSolver, ptr %132, i32 0, i32 0
  %134 = load ptr, ptr %133, align 8, !tbaa !35
  %135 = getelementptr inbounds nuw %struct._SUNLinearSolverContent_SPGMR, ptr %134, i32 0, i32 17
  %136 = load ptr, ptr %135, align 8, !tbaa !60
  call void @free(ptr noundef %136) #6
  %137 = load ptr, ptr %2, align 8, !tbaa !12
  %138 = getelementptr inbounds nuw %struct._generic_SUNLinearSolver, ptr %137, i32 0, i32 0
  %139 = load ptr, ptr %138, align 8, !tbaa !35
  %140 = getelementptr inbounds nuw %struct._SUNLinearSolverContent_SPGMR, ptr %139, i32 0, i32 17
  store ptr null, ptr %140, align 8, !tbaa !60
  br label %141

141:                                              ; preds = %131, %124
  %142 = load ptr, ptr %2, align 8, !tbaa !12
  %143 = getelementptr inbounds nuw %struct._generic_SUNLinearSolver, ptr %142, i32 0, i32 0
  %144 = load ptr, ptr %143, align 8, !tbaa !35
  %145 = getelementptr inbounds nuw %struct._SUNLinearSolverContent_SPGMR, ptr %144, i32 0, i32 19
  %146 = load ptr, ptr %145, align 8, !tbaa !61
  %147 = icmp ne ptr %146, null
  br i1 %147, label %148, label %158

148:                                              ; preds = %141
  %149 = load ptr, ptr %2, align 8, !tbaa !12
  %150 = getelementptr inbounds nuw %struct._generic_SUNLinearSolver, ptr %149, i32 0, i32 0
  %151 = load ptr, ptr %150, align 8, !tbaa !35
  %152 = getelementptr inbounds nuw %struct._SUNLinearSolverContent_SPGMR, ptr %151, i32 0, i32 19
  %153 = load ptr, ptr %152, align 8, !tbaa !61
  call void @free(ptr noundef %153) #6
  %154 = load ptr, ptr %2, align 8, !tbaa !12
  %155 = getelementptr inbounds nuw %struct._generic_SUNLinearSolver, ptr %154, i32 0, i32 0
  %156 = load ptr, ptr %155, align 8, !tbaa !35
  %157 = getelementptr inbounds nuw %struct._SUNLinearSolverContent_SPGMR, ptr %156, i32 0, i32 19
  store ptr null, ptr %157, align 8, !tbaa !61
  br label %158

158:                                              ; preds = %148, %141
  %159 = load ptr, ptr %2, align 8, !tbaa !12
  %160 = getelementptr inbounds nuw %struct._generic_SUNLinearSolver, ptr %159, i32 0, i32 0
  %161 = load ptr, ptr %160, align 8, !tbaa !35
  %162 = getelementptr inbounds nuw %struct._SUNLinearSolverContent_SPGMR, ptr %161, i32 0, i32 21
  %163 = load ptr, ptr %162, align 8, !tbaa !62
  %164 = icmp ne ptr %163, null
  br i1 %164, label %165, label %175

165:                                              ; preds = %158
  %166 = load ptr, ptr %2, align 8, !tbaa !12
  %167 = getelementptr inbounds nuw %struct._generic_SUNLinearSolver, ptr %166, i32 0, i32 0
  %168 = load ptr, ptr %167, align 8, !tbaa !35
  %169 = getelementptr inbounds nuw %struct._SUNLinearSolverContent_SPGMR, ptr %168, i32 0, i32 21
  %170 = load ptr, ptr %169, align 8, !tbaa !62
  call void @free(ptr noundef %170) #6
  %171 = load ptr, ptr %2, align 8, !tbaa !12
  %172 = getelementptr inbounds nuw %struct._generic_SUNLinearSolver, ptr %171, i32 0, i32 0
  %173 = load ptr, ptr %172, align 8, !tbaa !35
  %174 = getelementptr inbounds nuw %struct._SUNLinearSolverContent_SPGMR, ptr %173, i32 0, i32 21
  store ptr null, ptr %174, align 8, !tbaa !62
  br label %175

175:                                              ; preds = %165, %158
  %176 = load ptr, ptr %2, align 8, !tbaa !12
  %177 = getelementptr inbounds nuw %struct._generic_SUNLinearSolver, ptr %176, i32 0, i32 0
  %178 = load ptr, ptr %177, align 8, !tbaa !35
  %179 = getelementptr inbounds nuw %struct._SUNLinearSolverContent_SPGMR, ptr %178, i32 0, i32 22
  %180 = load ptr, ptr %179, align 8, !tbaa !63
  %181 = icmp ne ptr %180, null
  br i1 %181, label %182, label %192

182:                                              ; preds = %175
  %183 = load ptr, ptr %2, align 8, !tbaa !12
  %184 = getelementptr inbounds nuw %struct._generic_SUNLinearSolver, ptr %183, i32 0, i32 0
  %185 = load ptr, ptr %184, align 8, !tbaa !35
  %186 = getelementptr inbounds nuw %struct._SUNLinearSolverContent_SPGMR, ptr %185, i32 0, i32 22
  %187 = load ptr, ptr %186, align 8, !tbaa !63
  call void @free(ptr noundef %187) #6
  %188 = load ptr, ptr %2, align 8, !tbaa !12
  %189 = getelementptr inbounds nuw %struct._generic_SUNLinearSolver, ptr %188, i32 0, i32 0
  %190 = load ptr, ptr %189, align 8, !tbaa !35
  %191 = getelementptr inbounds nuw %struct._SUNLinearSolverContent_SPGMR, ptr %190, i32 0, i32 22
  store ptr null, ptr %191, align 8, !tbaa !63
  br label %192

192:                                              ; preds = %182, %175
  %193 = load ptr, ptr %2, align 8, !tbaa !12
  %194 = getelementptr inbounds nuw %struct._generic_SUNLinearSolver, ptr %193, i32 0, i32 0
  %195 = load ptr, ptr %194, align 8, !tbaa !35
  call void @free(ptr noundef %195) #6
  %196 = load ptr, ptr %2, align 8, !tbaa !12
  %197 = getelementptr inbounds nuw %struct._generic_SUNLinearSolver, ptr %196, i32 0, i32 0
  store ptr null, ptr %197, align 8, !tbaa !35
  br label %198

198:                                              ; preds = %192, %1
  %199 = load ptr, ptr %2, align 8, !tbaa !12
  %200 = getelementptr inbounds nuw %struct._generic_SUNLinearSolver, ptr %199, i32 0, i32 1
  %201 = load ptr, ptr %200, align 8, !tbaa !14
  %202 = icmp ne ptr %201, null
  br i1 %202, label %203, label %209

203:                                              ; preds = %198
  %204 = load ptr, ptr %2, align 8, !tbaa !12
  %205 = getelementptr inbounds nuw %struct._generic_SUNLinearSolver, ptr %204, i32 0, i32 1
  %206 = load ptr, ptr %205, align 8, !tbaa !14
  call void @free(ptr noundef %206) #6
  %207 = load ptr, ptr %2, align 8, !tbaa !12
  %208 = getelementptr inbounds nuw %struct._generic_SUNLinearSolver, ptr %207, i32 0, i32 1
  store ptr null, ptr %208, align 8, !tbaa !14
  br label %209

209:                                              ; preds = %203, %198
  %210 = load ptr, ptr %2, align 8, !tbaa !12
  call void @free(ptr noundef %210) #6
  store ptr null, ptr %2, align 8, !tbaa !12
  call void @llvm.lifetime.end.p0(i64 4, ptr %3) #6
  ret i32 0
}