; Function Attrs: nounwind uwtable
define noundef i32 @SUNLinSolFree_SPGMR(ptr noundef captures(none) %0) #0 {
  %2 = load ptr, ptr %0, align 8, !tbaa !26
  %.not = icmp eq ptr %2, null
  br i1 %.not, label %78, label %3

3:                                                ; preds = %1
  %4 = getelementptr inbounds nuw i8, ptr %2, i64 120
  %5 = load ptr, ptr %4, align 8, !tbaa !38
  %.not50 = icmp eq ptr %5, null
  br i1 %.not50, label %9, label %6

6:                                                ; preds = %3
  tail call void @N_VDestroy(ptr noundef nonnull %5) #12
  %7 = load ptr, ptr %0, align 8, !tbaa !26
  %8 = getelementptr inbounds nuw i8, ptr %7, i64 120
  store ptr null, ptr %8, align 8, !tbaa !38
  br label %9

9:                                                ; preds = %6, %3
  %10 = phi ptr [ %7, %6 ], [ %2, %3 ]
  %11 = getelementptr inbounds nuw i8, ptr %10, i64 136
  %12 = load ptr, ptr %11, align 8, !tbaa !39
  %.not51 = icmp eq ptr %12, null
  br i1 %.not51, label %16, label %13

13:                                               ; preds = %9
  tail call void @N_VDestroy(ptr noundef nonnull %12) #12
  %14 = load ptr, ptr %0, align 8, !tbaa !26
  %15 = getelementptr inbounds nuw i8, ptr %14, i64 136
  store ptr null, ptr %15, align 8, !tbaa !39
  br label %16

16:                                               ; preds = %13, %9
  %17 = phi ptr [ %14, %13 ], [ %10, %9 ]
  %18 = getelementptr inbounds nuw i8, ptr %17, i64 96
  %19 = load ptr, ptr %18, align 8, !tbaa !49
  %.not52 = icmp eq ptr %19, null
  br i1 %.not52, label %25, label %20

20:                                               ; preds = %16
  %21 = load i32, ptr %17, align 8, !tbaa !35
  %22 = add nsw i32 %21, 1
  tail call void @N_VDestroyVectorArray(ptr noundef nonnull %19, i32 noundef %22) #12
  %23 = load ptr, ptr %0, align 8, !tbaa !26
  %24 = getelementptr inbounds nuw i8, ptr %23, i64 96
  store ptr null, ptr %24, align 8, !tbaa !49
  br label %25

25:                                               ; preds = %20, %16
  %26 = phi ptr [ %23, %20 ], [ %17, %16 ]
  %27 = getelementptr inbounds nuw i8, ptr %26, i64 104
  %28 = load ptr, ptr %27, align 8, !tbaa !50
  %.not53 = icmp eq ptr %28, null
  br i1 %.not53, label %48, label %.preheader

.preheader:                                       ; preds = %25
  %29 = load i32, ptr %26, align 8, !tbaa !35
  %.not5461 = icmp slt i32 %29, 0
  br i1 %.not5461, label %._crit_edge, label %.lr.ph

.lr.ph:                                           ; preds = %.preheader, %41
  %30 = phi i32 [ %42, %41 ], [ %29, %.preheader ]
  %31 = phi ptr [ %43, %41 ], [ %26, %.preheader ]
  %indvars.iv = phi i64 [ %indvars.iv.next, %41 ], [ 0, %.preheader ]
  %32 = getelementptr inbounds nuw i8, ptr %31, i64 104
  %33 = load ptr, ptr %32, align 8, !tbaa !50
  %34 = getelementptr inbounds nuw ptr, ptr %33, i64 %indvars.iv
  %35 = load ptr, ptr %34, align 8, !tbaa !51
  %.not60 = icmp eq ptr %35, null
  br i1 %.not60, label %41, label %36

36:                                               ; preds = %.lr.ph
  tail call void @free(ptr noundef nonnull %35) #12
  %37 = load ptr, ptr %0, align 8, !tbaa !26
  %38 = getelementptr inbounds nuw i8, ptr %37, i64 104
  %39 = load ptr, ptr %38, align 8, !tbaa !50
  %40 = getelementptr inbounds nuw ptr, ptr %39, i64 %indvars.iv
  store ptr null, ptr %40, align 8, !tbaa !51
  %.pre = load i32, ptr %37, align 8, !tbaa !35
  br label %41

41:                                               ; preds = %.lr.ph, %36
  %42 = phi i32 [ %30, %.lr.ph ], [ %.pre, %36 ]
  %43 = phi ptr [ %31, %.lr.ph ], [ %37, %36 ]
  %indvars.iv.next = add nuw nsw i64 %indvars.iv, 1
  %44 = sext i32 %42 to i64
  %.not54.not = icmp slt i64 %indvars.iv, %44
  br i1 %.not54.not, label %.lr.ph, label %._crit_edge.loopexit

._crit_edge.loopexit:                             ; preds = %41
  %.phi.trans.insert = getelementptr inbounds nuw i8, ptr %43, i64 104
  %.pre65 = load ptr, ptr %.phi.trans.insert, align 8, !tbaa !50
  br label %._crit_edge

._crit_edge:                                      ; preds = %._crit_edge.loopexit, %.preheader
  %45 = phi ptr [ %28, %.preheader ], [ %.pre65, %._crit_edge.loopexit ]
  tail call void @free(ptr noundef %45) #12
  %46 = load ptr, ptr %0, align 8, !tbaa !26
  %47 = getelementptr inbounds nuw i8, ptr %46, i64 104
  store ptr null, ptr %47, align 8, !tbaa !50
  br label %48

48:                                               ; preds = %._crit_edge, %25
  %49 = phi ptr [ %46, %._crit_edge ], [ %26, %25 ]
  %50 = getelementptr inbounds nuw i8, ptr %49, i64 112
  %51 = load ptr, ptr %50, align 8, !tbaa !52
  %.not55 = icmp eq ptr %51, null
  br i1 %.not55, label %55, label %52

52:                                               ; preds = %48
  tail call void @free(ptr noundef nonnull %51) #12
  %53 = load ptr, ptr %0, align 8, !tbaa !26
  %54 = getelementptr inbounds nuw i8, ptr %53, i64 112
  store ptr null, ptr %54, align 8, !tbaa !52
  br label %55

55:                                               ; preds = %52, %48
  %56 = phi ptr [ %53, %52 ], [ %49, %48 ]
  %57 = getelementptr inbounds nuw i8, ptr %56, i64 128
  %58 = load ptr, ptr %57, align 8, !tbaa !53
  %.not56 = icmp eq ptr %58, null
  br i1 %.not56, label %62, label %59

59:                                               ; preds = %55
  tail call void @free(ptr noundef nonnull %58) #12
  %60 = load ptr, ptr %0, align 8, !tbaa !26
  %61 = getelementptr inbounds nuw i8, ptr %60, i64 128
  store ptr null, ptr %61, align 8, !tbaa !53
  br label %62

62:                                               ; preds = %59, %55
  %63 = phi ptr [ %60, %59 ], [ %56, %55 ]
  %64 = getelementptr inbounds nuw i8, ptr %63, i64 144
  %65 = load ptr, ptr %64, align 8, !tbaa !54
  %.not57 = icmp eq ptr %65, null
  br i1 %.not57, label %69, label %66

66:                                               ; preds = %62
  tail call void @free(ptr noundef nonnull %65) #12
  %67 = load ptr, ptr %0, align 8, !tbaa !26
  %68 = getelementptr inbounds nuw i8, ptr %67, i64 144
  store ptr null, ptr %68, align 8, !tbaa !54
  br label %69

69:                                               ; preds = %66, %62
  %70 = phi ptr [ %67, %66 ], [ %63, %62 ]
  %71 = getelementptr inbounds nuw i8, ptr %70, i64 152
  %72 = load ptr, ptr %71, align 8, !tbaa !55
  %.not58 = icmp eq ptr %72, null
  br i1 %.not58, label %76, label %73

73:                                               ; preds = %69
  tail call void @free(ptr noundef nonnull %72) #12
  %74 = load ptr, ptr %0, align 8, !tbaa !26
  %75 = getelementptr inbounds nuw i8, ptr %74, i64 152
  store ptr null, ptr %75, align 8, !tbaa !55
  br label %76

76:                                               ; preds = %73, %69
  %77 = phi ptr [ %74, %73 ], [ %70, %69 ]
  tail call void @free(ptr noundef nonnull %77) #12
  store ptr null, ptr %0, align 8, !tbaa !26
  br label %78

78:                                               ; preds = %76, %1
  %79 = getelementptr inbounds nuw i8, ptr %0, i64 8
  %80 = load ptr, ptr %79, align 8, !tbaa !3
  %.not59 = icmp eq ptr %80, null
  br i1 %.not59, label %82, label %81

81:                                               ; preds = %78
  tail call void @free(ptr noundef nonnull %80) #12
  br label %82

82:                                               ; preds = %81, %78
  tail call void @free(ptr noundef nonnull %0) #12
  ret i32 0
}